
test/asm/tmp.o:     file format elf64-x86-64


Disassembly of section .text:

0000000000000000 <auto eve::detail::self_div<signed char, eve::sse_abi_v0::wide<signed char, eve::fixed<4l> >, eve::fixed<4l> >(eve::sse_abi_v0::wide<signed char, eve::fixed<4l> >&, eve::sse_abi_v0::wide<signed char, eve::fixed<4l> > const&)::{lambda(auto:1, auto:2)#1}::operator()<eve::sse_abi_v0::wide<signed char, eve::fixed<2l> >, eve::sse_abi_v0::wide<signed char, eve::fixed<2l> > >(eve::sse_abi_v0::wide<signed char, eve::fixed<2l> >, eve::sse_abi_v0::wide<signed char, eve::fixed<2l> >) const [clone .isra.0]>:
   0:	66 0f 7e c0          	movd   %xmm0,%eax
   4:	66 0f 7e c9          	movd   %xmm1,%ecx
   8:	0f 29 44 24 e8       	movaps %xmm0,-0x18(%rsp)
   d:	0f be c0             	movsbl %al,%eax
  10:	0f be c9             	movsbl %cl,%ecx
  13:	0f 29 4c 24 d8       	movaps %xmm1,-0x28(%rsp)
  18:	0f be 74 24 d9       	movsbl -0x27(%rsp),%esi
  1d:	48 c7 44 24 d0 00 00 	movq   $0x0,-0x30(%rsp)
  24:	00 00 
  26:	99                   	cltd   
  27:	f7 f9                	idiv   %ecx
  29:	89 c1                	mov    %eax,%ecx
  2b:	0f be 44 24 e9       	movsbl -0x17(%rsp),%eax
  30:	0f b6 c9             	movzbl %cl,%ecx
  33:	99                   	cltd   
  34:	f7 fe                	idiv   %esi
  36:	0f b6 c0             	movzbl %al,%eax
  39:	48 c1 e0 08          	shl    $0x8,%rax
  3d:	48 09 c8             	or     %rcx,%rax
  40:	48 89 44 24 c8       	mov    %rax,-0x38(%rsp)
  45:	66 0f 6f 44 24 c8    	movdqa -0x38(%rsp),%xmm0
  4b:	c3                   	ret    
  4c:	0f 1f 40 00          	nopl   0x0(%rax)

0000000000000050 <auto eve::detail::self_div<signed char, eve::sse_abi_v0::wide<signed char, eve::fixed<16l> >, eve::fixed<16l> >(eve::sse_abi_v0::wide<signed char, eve::fixed<16l> >&, eve::sse_abi_v0::wide<signed char, eve::fixed<16l> > const&)::{lambda(auto:1, auto:2)#1}::operator()<eve::sse_abi_v0::wide<signed char, eve::fixed<8l> >, eve::sse_abi_v0::wide<signed char, eve::fixed<8l> > >(eve::sse_abi_v0::wide<signed char, eve::fixed<8l> >, eve::sse_abi_v0::wide<signed char, eve::fixed<8l> >) const [clone .isra.0]>:
  50:	f2 0f 70 d1 01       	pshuflw $0x1,%xmm1,%xmm2
  55:	f2 0f 70 e8 01       	pshuflw $0x1,%xmm0,%xmm5
  5a:	66 0f 70 e0 01       	pshufd $0x1,%xmm0,%xmm4
  5f:	48 81 ec c8 00 00 00 	sub    $0xc8,%rsp
  66:	64 48 8b 04 25 28 00 	mov    %fs:0x28,%rax
  6d:	00 00 
  6f:	48 89 84 24 b8 00 00 	mov    %rax,0xb8(%rsp)
  76:	00 
  77:	31 c0                	xor    %eax,%eax
  79:	66 0f 6f f5          	movdqa %xmm5,%xmm6
  7d:	0f 29 ac 24 80 00 00 	movaps %xmm5,0x80(%rsp)
  84:	00 
  85:	66 0f 6f ea          	movdqa %xmm2,%xmm5
  89:	0f 29 94 24 a0 00 00 	movaps %xmm2,0xa0(%rsp)
  90:	00 
  91:	66 0f 70 d9 01       	pshufd $0x1,%xmm1,%xmm3
  96:	e8 65 ff ff ff       	call   0 <auto eve::detail::self_div<signed char, eve::sse_abi_v0::wide<signed char, eve::fixed<4l> >, eve::fixed<4l> >(eve::sse_abi_v0::wide<signed char, eve::fixed<4l> >&, eve::sse_abi_v0::wide<signed char, eve::fixed<4l> > const&)::{lambda(auto:1, auto:2)#1}::operator()<eve::sse_abi_v0::wide<signed char, eve::fixed<2l> >, eve::sse_abi_v0::wide<signed char, eve::fixed<2l> > >(eve::sse_abi_v0::wide<signed char, eve::fixed<2l> >, eve::sse_abi_v0::wide<signed char, eve::fixed<2l> >) const [clone .isra.0]>
  9b:	66 0f 6f cd          	movdqa %xmm5,%xmm1
  9f:	f2 0f 70 ec 01       	pshuflw $0x1,%xmm4,%xmm5
  a4:	66 0f 6f d0          	movdqa %xmm0,%xmm2
  a8:	66 0f 6f c6          	movdqa %xmm6,%xmm0
  ac:	e8 4f ff ff ff       	call   0 <auto eve::detail::self_div<signed char, eve::sse_abi_v0::wide<signed char, eve::fixed<4l> >, eve::fixed<4l> >(eve::sse_abi_v0::wide<signed char, eve::fixed<4l> >&, eve::sse_abi_v0::wide<signed char, eve::fixed<4l> > const&)::{lambda(auto:1, auto:2)#1}::operator()<eve::sse_abi_v0::wide<signed char, eve::fixed<2l> >, eve::sse_abi_v0::wide<signed char, eve::fixed<2l> > >(eve::sse_abi_v0::wide<signed char, eve::fixed<2l> >, eve::sse_abi_v0::wide<signed char, eve::fixed<2l> >) const [clone .isra.0]>
  b1:	0f 29 54 24 60       	movaps %xmm2,0x60(%rsp)
  b6:	66 0f 7e d2          	movd   %xmm2,%edx
  ba:	66 0f 6f cb          	movdqa %xmm3,%xmm1
  be:	0f 29 44 24 50       	movaps %xmm0,0x50(%rsp)
  c3:	0f b6 44 24 51       	movzbl 0x51(%rsp),%eax
  c8:	66 0f 7e c1          	movd   %xmm0,%ecx
  cc:	0f b6 d2             	movzbl %dl,%edx
  cf:	0f b6 c9             	movzbl %cl,%ecx
  d2:	66 0f 6f c4          	movdqa %xmm4,%xmm0
  d6:	f2 0f 70 d3 01       	pshuflw $0x1,%xmm3,%xmm2
  db:	48 c7 44 24 08 00 00 	movq   $0x0,0x8(%rsp)
  e2:	00 00 
  e4:	48 c1 e0 08          	shl    $0x8,%rax
  e8:	0f 29 64 24 70       	movaps %xmm4,0x70(%rsp)
  ed:	48 09 c8             	or     %rcx,%rax
  f0:	0f b6 4c 24 61       	movzbl 0x61(%rsp),%ecx
  f5:	0f 29 9c 24 90 00 00 	movaps %xmm3,0x90(%rsp)
  fc:	00 
  fd:	48 c1 e0 08          	shl    $0x8,%rax
 101:	48 09 c8             	or     %rcx,%rax
 104:	48 c1 e0 08          	shl    $0x8,%rax
 108:	48 09 d0             	or     %rdx,%rax
 10b:	48 89 04 24          	mov    %rax,(%rsp)
 10f:	e8 ec fe ff ff       	call   0 <auto eve::detail::self_div<signed char, eve::sse_abi_v0::wide<signed char, eve::fixed<4l> >, eve::fixed<4l> >(eve::sse_abi_v0::wide<signed char, eve::fixed<4l> >&, eve::sse_abi_v0::wide<signed char, eve::fixed<4l> > const&)::{lambda(auto:1, auto:2)#1}::operator()<eve::sse_abi_v0::wide<signed char, eve::fixed<2l> >, eve::sse_abi_v0::wide<signed char, eve::fixed<2l> > >(eve::sse_abi_v0::wide<signed char, eve::fixed<2l> >, eve::sse_abi_v0::wide<signed char, eve::fixed<2l> >) const [clone .isra.0]>
 114:	66 0f 7e e8          	movd   %xmm5,%eax
 118:	66 0f 7e d1          	movd   %xmm2,%ecx
 11c:	0f 29 6c 24 30       	movaps %xmm5,0x30(%rsp)
 121:	0f be c0             	movsbl %al,%eax
 124:	0f be c9             	movsbl %cl,%ecx
 127:	0f 29 54 24 20       	movaps %xmm2,0x20(%rsp)
 12c:	0f be 7c 24 21       	movsbl 0x21(%rsp),%edi
 131:	99                   	cltd   
 132:	0f 29 44 24 40       	movaps %xmm0,0x40(%rsp)
 137:	66 0f 7e c6          	movd   %xmm0,%esi
 13b:	0f 28 04 24          	movaps (%rsp),%xmm0
 13f:	f7 f9                	idiv   %ecx
 141:	48 c7 44 24 18 00 00 	movq   $0x0,0x18(%rsp)
 148:	00 00 
 14a:	40 0f b6 f6          	movzbl %sil,%esi
 14e:	89 c1                	mov    %eax,%ecx
 150:	0f be 44 24 31       	movsbl 0x31(%rsp),%eax
 155:	0f b6 c9             	movzbl %cl,%ecx
 158:	99                   	cltd   
 159:	f7 ff                	idiv   %edi
 15b:	0f b6 54 24 41       	movzbl 0x41(%rsp),%edx
 160:	0f b6 c0             	movzbl %al,%eax
 163:	48 c1 e0 08          	shl    $0x8,%rax
 167:	48 09 c8             	or     %rcx,%rax
 16a:	48 c1 e0 08          	shl    $0x8,%rax
 16e:	48 09 d0             	or     %rdx,%rax
 171:	48 c1 e0 08          	shl    $0x8,%rax
 175:	48 09 f0             	or     %rsi,%rax
 178:	48 89 44 24 10       	mov    %rax,0x10(%rsp)
 17d:	0f 16 44 24 10       	movhps 0x10(%rsp),%xmm0
 182:	66 0f 70 c0 88       	pshufd $0x88,%xmm0,%xmm0
 187:	48 8b 84 24 b8 00 00 	mov    0xb8(%rsp),%rax
 18e:	00 
 18f:	64 48 2b 04 25 28 00 	sub    %fs:0x28,%rax
 196:	00 00 
 198:	75 08                	jne    1a2 <auto eve::detail::self_div<signed char, eve::sse_abi_v0::wide<signed char, eve::fixed<16l> >, eve::fixed<16l> >(eve::sse_abi_v0::wide<signed char, eve::fixed<16l> >&, eve::sse_abi_v0::wide<signed char, eve::fixed<16l> > const&)::{lambda(auto:1, auto:2)#1}::operator()<eve::sse_abi_v0::wide<signed char, eve::fixed<8l> >, eve::sse_abi_v0::wide<signed char, eve::fixed<8l> > >(eve::sse_abi_v0::wide<signed char, eve::fixed<8l> >, eve::sse_abi_v0::wide<signed char, eve::fixed<8l> >) const [clone .isra.0]+0x152>
 19a:	48 81 c4 c8 00 00 00 	add    $0xc8,%rsp
 1a1:	c3                   	ret    
 1a2:	e8 00 00 00 00       	call   1a7 <auto eve::detail::self_div<signed char, eve::sse_abi_v0::wide<signed char, eve::fixed<16l> >, eve::fixed<16l> >(eve::sse_abi_v0::wide<signed char, eve::fixed<16l> >&, eve::sse_abi_v0::wide<signed char, eve::fixed<16l> > const&)::{lambda(auto:1, auto:2)#1}::operator()<eve::sse_abi_v0::wide<signed char, eve::fixed<8l> >, eve::sse_abi_v0::wide<signed char, eve::fixed<8l> > >(eve::sse_abi_v0::wide<signed char, eve::fixed<8l> >, eve::sse_abi_v0::wide<signed char, eve::fixed<8l> >) const [clone .isra.0]+0x157>
 1a7:	66 0f 1f 84 00 00 00 	nopw   0x0(%rax,%rax,1)
 1ae:	00 00 

00000000000001b0 <func_abs(eve::sse_abi_v0::wide<signed char, eve::fixed<16l> >)>:
 1b0:	f3 0f 1e fa          	endbr64 
 1b4:	66 0f 6f c8          	movdqa %xmm0,%xmm1
 1b8:	66 0f ef c0          	pxor   %xmm0,%xmm0
 1bc:	66 0f f8 c1          	psubb  %xmm1,%xmm0
 1c0:	66 0f da c1          	pminub %xmm1,%xmm0
 1c4:	c3                   	ret    
 1c5:	66 66 2e 0f 1f 84 00 	data16 cs nopw 0x0(%rax,%rax,1)
 1cc:	00 00 00 00 

00000000000001d0 <func_agm(eve::sse_abi_v0::wide<float, eve::fixed<4l> >, eve::sse_abi_v0::wide<float, eve::fixed<4l> >)>:
 1d0:	f3 0f 1e fa          	endbr64 
 1d4:	0f 28 25 00 00 00 00 	movaps 0x0(%rip),%xmm4        # 1db <func_agm(eve::sse_abi_v0::wide<float, eve::fixed<4l> >, eve::sse_abi_v0::wide<float, eve::fixed<4l> >)+0xb>
 1db:	0f 28 f1             	movaps %xmm1,%xmm6
 1de:	0f 28 d0             	movaps %xmm0,%xmm2
 1e1:	66 0f ef db          	pxor   %xmm3,%xmm3
 1e5:	0f 28 2d 00 00 00 00 	movaps 0x0(%rip),%xmm5        # 1ec <func_agm(eve::sse_abi_v0::wide<float, eve::fixed<4l> >, eve::sse_abi_v0::wide<float, eve::fixed<4l> >)+0x1c>
 1ec:	44 0f 28 d9          	movaps %xmm1,%xmm11
 1f0:	66 44 0f 6f 0d 00 00 	movdqa 0x0(%rip),%xmm9        # 1f9 <func_agm(eve::sse_abi_v0::wide<float, eve::fixed<4l> >, eve::sse_abi_v0::wide<float, eve::fixed<4l> >)+0x29>
 1f7:	00 00 
 1f9:	66 44 0f 6f 2d 00 00 	movdqa 0x0(%rip),%xmm13        # 202 <func_agm(eve::sse_abi_v0::wide<float, eve::fixed<4l> >, eve::sse_abi_v0::wide<float, eve::fixed<4l> >)+0x32>
 200:	00 00 
 202:	0f 59 d4             	mulps  %xmm4,%xmm2
 205:	44 0f 58 d8          	addps  %xmm0,%xmm11
 209:	0f 59 f4             	mulps  %xmm4,%xmm6
 20c:	0f 58 f2             	addps  %xmm2,%xmm6
 20f:	0f 28 fe             	movaps %xmm6,%xmm7
 212:	0f 28 d6             	movaps %xmm6,%xmm2
 215:	0f 5c f6             	subps  %xmm6,%xmm6
 218:	0f c2 fb 04          	cmpneqps %xmm3,%xmm7
 21c:	0f 54 d5             	andps  %xmm5,%xmm2
 21f:	66 0f 72 e2 17       	psrad  $0x17,%xmm2
 224:	0f c2 f6 04          	cmpneqps %xmm6,%xmm6
 228:	66 44 0f 6f c7       	movdqa %xmm7,%xmm8
 22d:	66 44 0f df c2       	pandn  %xmm2,%xmm8
 232:	66 0f fe 15 00 00 00 	paddd  0x0(%rip),%xmm2        # 23a <func_agm(eve::sse_abi_v0::wide<float, eve::fixed<4l> >, eve::sse_abi_v0::wide<float, eve::fixed<4l> >)+0x6a>
 239:	00 
 23a:	66 0f db d7          	pand   %xmm7,%xmm2
 23e:	66 41 0f 6f f9       	movdqa %xmm9,%xmm7
 243:	66 44 0f db c9       	pand   %xmm1,%xmm9
 248:	66 41 0f eb d0       	por    %xmm8,%xmm2
 24d:	44 0f 28 c1          	movaps %xmm1,%xmm8
 251:	66 0f db f8          	pand   %xmm0,%xmm7
 255:	44 0f c2 c3 00       	cmpeqps %xmm3,%xmm8
 25a:	44 0f c2 cd 00       	cmpeqps %xmm5,%xmm9
 25f:	66 0f df f2          	pandn  %xmm2,%xmm6
 263:	0f 28 d0             	movaps %xmm0,%xmm2
 266:	0f c2 fd 00          	cmpeqps %xmm5,%xmm7
 26a:	0f c2 d3 00          	cmpeqps %xmm3,%xmm2
 26e:	66 45 0f 6f d0       	movdqa %xmm8,%xmm10
 273:	41 0f 56 f9          	orps   %xmm9,%xmm7
 277:	44 0f 28 c8          	movaps %xmm0,%xmm9
 27b:	66 44 0f eb d2       	por    %xmm2,%xmm10
 280:	44 0f 55 15 00 00 00 	andnps 0x0(%rip),%xmm10        # 288 <func_agm(eve::sse_abi_v0::wide<float, eve::fixed<4l> >, eve::sse_abi_v0::wide<float, eve::fixed<4l> >)+0xb8>
 287:	00 
 288:	0f 28 ef             	movaps %xmm7,%xmm5
 28b:	66 44 0f db df       	pand   %xmm7,%xmm11
 290:	44 0f c2 c9 03       	cmpunordps %xmm1,%xmm9
 295:	41 0f 55 ea          	andnps %xmm10,%xmm5
 299:	45 0f 28 d0          	movaps %xmm8,%xmm10
 29d:	66 44 0f db c1       	pand   %xmm1,%xmm8
 2a2:	66 44 0f eb dd       	por    %xmm5,%xmm11
 2a7:	66 0f 6f 2d 00 00 00 	movdqa 0x0(%rip),%xmm5        # 2af <func_agm(eve::sse_abi_v0::wide<float, eve::fixed<4l> >, eve::sse_abi_v0::wide<float, eve::fixed<4l> >)+0xdf>
 2ae:	00 
 2af:	66 44 0f 6f e5       	movdqa %xmm5,%xmm12
 2b4:	66 0f db e8          	pand   %xmm0,%xmm5
 2b8:	66 44 0f db e1       	pand   %xmm1,%xmm12
 2bd:	66 41 0f eb ed       	por    %xmm13,%xmm5
 2c2:	66 45 0f eb e5       	por    %xmm13,%xmm12
 2c7:	45 0f 55 d4          	andnps %xmm12,%xmm10
 2cb:	44 0f 28 e2          	movaps %xmm2,%xmm12
 2cf:	44 0f 55 e5          	andnps %xmm5,%xmm12
 2d3:	66 0f 6f ea          	movdqa %xmm2,%xmm5
 2d7:	66 45 0f eb c2       	por    %xmm10,%xmm8
 2dc:	66 44 0f 6f 15 00 00 	movdqa 0x0(%rip),%xmm10        # 2e5 <func_agm(eve::sse_abi_v0::wide<float, eve::fixed<4l> >, eve::sse_abi_v0::wide<float, eve::fixed<4l> >)+0x115>
 2e3:	00 00 
 2e5:	66 0f db e8          	pand   %xmm0,%xmm5
 2e9:	66 41 0f eb ec       	por    %xmm12,%xmm5
 2ee:	41 0f 59 e8          	mulps  %xmm8,%xmm5
 2f2:	44 0f 28 05 00 00 00 	movaps 0x0(%rip),%xmm8        # 2fa <func_agm(eve::sse_abi_v0::wide<float, eve::fixed<4l> >, eve::sse_abi_v0::wide<float, eve::fixed<4l> >)+0x12a>
 2f9:	00 
 2fa:	0f c2 eb 02          	cmpleps %xmm3,%xmm5
 2fe:	41 0f 56 e9          	orps   %xmm9,%xmm5
 302:	44 0f 28 0d 00 00 00 	movaps 0x0(%rip),%xmm9        # 30a <func_agm(eve::sse_abi_v0::wide<float, eve::fixed<4l> >, eve::sse_abi_v0::wide<float, eve::fixed<4l> >)+0x13a>
 309:	00 
 30a:	66 0f eb ef          	por    %xmm7,%xmm5
 30e:	0f 28 3d 00 00 00 00 	movaps 0x0(%rip),%xmm7        # 315 <func_agm(eve::sse_abi_v0::wide<float, eve::fixed<4l> >, eve::sse_abi_v0::wide<float, eve::fixed<4l> >)+0x145>
 315:	0f 28 d5             	movaps %xmm5,%xmm2
 318:	0f 55 d0             	andnps %xmm0,%xmm2
 31b:	0f 28 c5             	movaps %xmm5,%xmm0
 31e:	0f 55 c1             	andnps %xmm1,%xmm0
 321:	66 41 0f 6f ca       	movdqa %xmm10,%xmm1
 326:	66 0f fa ce          	psubd  %xmm6,%xmm1
 32a:	66 0f 72 f1 17       	pslld  $0x17,%xmm1
 32f:	0f 59 c1             	mulps  %xmm1,%xmm0
 332:	0f 59 d1             	mulps  %xmm1,%xmm2
 335:	0f 28 c8             	movaps %xmm0,%xmm1
 338:	41 0f 57 c9          	xorps  %xmm9,%xmm1
 33c:	0f 28 da             	movaps %xmm2,%xmm3
 33f:	0f 59 cc             	mulps  %xmm4,%xmm1
 342:	0f 59 dc             	mulps  %xmm4,%xmm3
 345:	0f 58 cb             	addps  %xmm3,%xmm1
 348:	41 0f 54 c8          	andps  %xmm8,%xmm1
 34c:	eb 2f                	jmp    37d <func_agm(eve::sse_abi_v0::wide<float, eve::fixed<4l> >, eve::sse_abi_v0::wide<float, eve::fixed<4l> >)+0x1ad>
 34e:	66 90                	xchg   %ax,%ax
 350:	0f 28 c8             	movaps %xmm0,%xmm1
 353:	44 0f 28 e2          	movaps %xmm2,%xmm12
 357:	0f 28 da             	movaps %xmm2,%xmm3
 35a:	44 0f 59 e4          	mulps  %xmm4,%xmm12
 35e:	41 0f 57 c9          	xorps  %xmm9,%xmm1
 362:	0f 28 d0             	movaps %xmm0,%xmm2
 365:	0f 59 d8             	mulps  %xmm0,%xmm3
 368:	0f 59 cc             	mulps  %xmm4,%xmm1
 36b:	0f 59 d4             	mulps  %xmm4,%xmm2
 36e:	0f 51 c3             	sqrtps %xmm3,%xmm0
 371:	41 0f 58 cc          	addps  %xmm12,%xmm1
 375:	41 0f 58 d4          	addps  %xmm12,%xmm2
 379:	41 0f 54 c8          	andps  %xmm8,%xmm1
 37d:	0f 28 df             	movaps %xmm7,%xmm3
 380:	0f c2 d9 01          	cmpltps %xmm1,%xmm3
 384:	0f 50 c3             	movmskps %xmm3,%eax
 387:	a8 0f                	test   $0xf,%al
 389:	75 c5                	jne    350 <func_agm(eve::sse_abi_v0::wide<float, eve::fixed<4l> >, eve::sse_abi_v0::wide<float, eve::fixed<4l> >)+0x180>
 38b:	66 44 0f fe d6       	paddd  %xmm6,%xmm10
 390:	0f 28 cd             	movaps %xmm5,%xmm1
 393:	66 41 0f db eb       	pand   %xmm11,%xmm5
 398:	66 41 0f 72 f2 17    	pslld  $0x17,%xmm10
 39e:	41 0f 59 c2          	mulps  %xmm10,%xmm0
 3a2:	0f 55 c8             	andnps %xmm0,%xmm1
 3a5:	66 0f 6f c5          	movdqa %xmm5,%xmm0
 3a9:	66 0f eb c1          	por    %xmm1,%xmm0
 3ad:	c3                   	ret    
 3ae:	66 90                	xchg   %ax,%ax

00000000000003b0 <func_average(eve::sse_abi_v0::wide<signed char, eve::fixed<16l> >, eve::sse_abi_v0::wide<signed char, eve::fixed<16l> >)>:
 3b0:	f3 0f 1e fa          	endbr64 
 3b4:	66 0f 6f d0          	movdqa %xmm0,%xmm2
 3b8:	66 0f 6f 1d 00 00 00 	movdqa 0x0(%rip),%xmm3        # 3c0 <func_average(eve::sse_abi_v0::wide<signed char, eve::fixed<16l> >, eve::sse_abi_v0::wide<signed char, eve::fixed<16l> >)+0x10>
 3bf:	00 
 3c0:	66 0f db c1          	pand   %xmm1,%xmm0
 3c4:	66 0f ef d1          	pxor   %xmm1,%xmm2
 3c8:	66 0f 71 e2 01       	psraw  $0x1,%xmm2
 3cd:	66 0f db 15 00 00 00 	pand   0x0(%rip),%xmm2        # 3d5 <func_average(eve::sse_abi_v0::wide<signed char, eve::fixed<16l> >, eve::sse_abi_v0::wide<signed char, eve::fixed<16l> >)+0x25>
 3d4:	00 
 3d5:	66 0f ef d3          	pxor   %xmm3,%xmm2
 3d9:	66 0f f8 d3          	psubb  %xmm3,%xmm2
 3dd:	66 0f fc c2          	paddb  %xmm2,%xmm0
 3e1:	c3                   	ret    
 3e2:	66 66 2e 0f 1f 84 00 	data16 cs nopw 0x0(%rax,%rax,1)
 3e9:	00 00 00 00 
 3ed:	0f 1f 00             	nopl   (%rax)

00000000000003f0 <func_add(eve::sse_abi_v0::wide<signed char, eve::fixed<16l> >, eve::sse_abi_v0::wide<signed char, eve::fixed<16l> >)>:
 3f0:	f3 0f 1e fa          	endbr64 
 3f4:	66 0f fc c1          	paddb  %xmm1,%xmm0
 3f8:	c3                   	ret    
 3f9:	0f 1f 80 00 00 00 00 	nopl   0x0(%rax)

0000000000000400 <func_ceil(eve::sse_abi_v0::wide<float, eve::fixed<4l> >)>:
 400:	f3 0f 1e fa          	endbr64 
 404:	0f 28 1d 00 00 00 00 	movaps 0x0(%rip),%xmm3        # 40b <func_ceil(eve::sse_abi_v0::wide<float, eve::fixed<4l> >)+0xb>
 40b:	66 0f 6f 0d 00 00 00 	movdqa 0x0(%rip),%xmm1        # 413 <func_ceil(eve::sse_abi_v0::wide<float, eve::fixed<4l> >)+0x13>
 412:	00 
 413:	0f 57 c3             	xorps  %xmm3,%xmm0
 416:	66 0f db c8          	pand   %xmm0,%xmm1
 41a:	f3 0f 5b d0          	cvttps2dq %xmm0,%xmm2
 41e:	0f 5b d2             	cvtdq2ps %xmm2,%xmm2
 421:	0f c2 0d 00 00 00 00 	cmpnleps 0x0(%rip),%xmm1        # 429 <func_ceil(eve::sse_abi_v0::wide<float, eve::fixed<4l> >)+0x29>
 428:	06 
 429:	0f 28 e1             	movaps %xmm1,%xmm4
 42c:	66 0f db c8          	pand   %xmm0,%xmm1
 430:	0f 55 e2             	andnps %xmm2,%xmm4
 433:	0f 28 d0             	movaps %xmm0,%xmm2
 436:	0f 28 05 00 00 00 00 	movaps 0x0(%rip),%xmm0        # 43d <func_ceil(eve::sse_abi_v0::wide<float, eve::fixed<4l> >)+0x3d>
 43d:	66 0f eb cc          	por    %xmm4,%xmm1
 441:	0f c2 d1 01          	cmpltps %xmm1,%xmm2
 445:	0f 58 c1             	addps  %xmm1,%xmm0
 448:	0f 28 e2             	movaps %xmm2,%xmm4
 44b:	0f 54 c2             	andps  %xmm2,%xmm0
 44e:	0f 55 e1             	andnps %xmm1,%xmm4
 451:	66 0f eb c4          	por    %xmm4,%xmm0
 455:	0f 57 c3             	xorps  %xmm3,%xmm0
 458:	c3                   	ret    
 459:	0f 1f 80 00 00 00 00 	nopl   0x0(%rax)

0000000000000460 <func_clamp(eve::sse_abi_v0::wide<float, eve::fixed<4l> >, eve::sse_abi_v0::wide<float, eve::fixed<4l> >, eve::sse_abi_v0::wide<float, eve::fixed<4l> >)>:
 460:	f3 0f 1e fa          	endbr64 
 464:	0f 28 da             	movaps %xmm2,%xmm3
 467:	0f c2 d9 01          	cmpltps %xmm1,%xmm3
 46b:	0f 28 eb             	movaps %xmm3,%xmm5
 46e:	0f 28 e3             	movaps %xmm3,%xmm4
 471:	0f 55 e2             	andnps %xmm2,%xmm4
 474:	0f 55 e9             	andnps %xmm1,%xmm5
 477:	66 0f db d3          	pand   %xmm3,%xmm2
 47b:	66 0f eb d5          	por    %xmm5,%xmm2
 47f:	66 0f db d9          	pand   %xmm1,%xmm3
 483:	0f 5f c2             	maxps  %xmm2,%xmm0
 486:	66 0f eb dc          	por    %xmm4,%xmm3
 48a:	0f 5d c3             	minps  %xmm3,%xmm0
 48d:	c3                   	ret    
 48e:	66 90                	xchg   %ax,%ax

0000000000000490 <func_conj(eve::sse_abi_v0::wide<float, eve::fixed<4l> >)>:
 490:	f3 0f 1e fa          	endbr64 
 494:	c3                   	ret    
 495:	66 66 2e 0f 1f 84 00 	data16 cs nopw 0x0(%rax,%rax,1)
 49c:	00 00 00 00 

00000000000004a0 <func_copysign(eve::sse_abi_v0::wide<float, eve::fixed<4l> >, eve::sse_abi_v0::wide<float, eve::fixed<4l> >)>:
 4a0:	f3 0f 1e fa          	endbr64 
 4a4:	0f 54 05 00 00 00 00 	andps  0x0(%rip),%xmm0        # 4ab <func_copysign(eve::sse_abi_v0::wide<float, eve::fixed<4l> >, eve::sse_abi_v0::wide<float, eve::fixed<4l> >)+0xb>
 4ab:	0f 54 0d 00 00 00 00 	andps  0x0(%rip),%xmm1        # 4b2 <func_copysign(eve::sse_abi_v0::wide<float, eve::fixed<4l> >, eve::sse_abi_v0::wide<float, eve::fixed<4l> >)+0x12>
 4b2:	66 0f eb c1          	por    %xmm1,%xmm0
 4b6:	c3                   	ret    
 4b7:	66 0f 1f 84 00 00 00 	nopw   0x0(%rax,%rax,1)
 4be:	00 00 

00000000000004c0 <func_dec(eve::sse_abi_v0::wide<signed char, eve::fixed<16l> >)>:
 4c0:	f3 0f 1e fa          	endbr64 
 4c4:	66 0f 6f c8          	movdqa %xmm0,%xmm1
 4c8:	66 0f 76 c0          	pcmpeqd %xmm0,%xmm0
 4cc:	66 0f fc c1          	paddb  %xmm1,%xmm0
 4d0:	c3                   	ret    
 4d1:	66 66 2e 0f 1f 84 00 	data16 cs nopw 0x0(%rax,%rax,1)
 4d8:	00 00 00 00 
 4dc:	0f 1f 40 00          	nopl   0x0(%rax)

00000000000004e0 <func_dot(eve::sse_abi_v0::wide<short, eve::fixed<4l> >, eve::sse_abi_v0::wide<short, eve::fixed<4l> >)>:
 4e0:	f3 0f 1e fa          	endbr64 
 4e4:	66 0f d5 c1          	pmullw %xmm1,%xmm0
 4e8:	c3                   	ret    
 4e9:	0f 1f 80 00 00 00 00 	nopl   0x0(%rax)

00000000000004f0 <func_fdim(eve::sse_abi_v0::wide<signed char, eve::fixed<16l> >, eve::sse_abi_v0::wide<signed char, eve::fixed<16l> >)>:
 4f0:	f3 0f 1e fa          	endbr64 
 4f4:	66 0f 6f d1          	movdqa %xmm1,%xmm2
 4f8:	66 0f 64 d0          	pcmpgtb %xmm0,%xmm2
 4fc:	66 0f f8 c1          	psubb  %xmm1,%xmm0
 500:	66 0f df d0          	pandn  %xmm0,%xmm2
 504:	66 0f 6f c2          	movdqa %xmm2,%xmm0
 508:	c3                   	ret    
 509:	0f 1f 80 00 00 00 00 	nopl   0x0(%rax)

0000000000000510 <func_floor(eve::sse_abi_v0::wide<float, eve::fixed<8l> >)>:
 510:	f3 0f 1e fa          	endbr64 
 514:	66 0f 6f 0d 00 00 00 	movdqa 0x0(%rip),%xmm1        # 51c <func_floor(eve::sse_abi_v0::wide<float, eve::fixed<8l> >)+0xc>
 51b:	00 
 51c:	0f 28 54 24 08       	movaps 0x8(%rsp),%xmm2
 521:	48 89 f8             	mov    %rdi,%rax
 524:	0f 28 2d 00 00 00 00 	movaps 0x0(%rip),%xmm5        # 52b <func_floor(eve::sse_abi_v0::wide<float, eve::fixed<8l> >)+0x1b>
 52b:	0f 28 5c 24 18       	movaps 0x18(%rsp),%xmm3
 530:	66 0f 6f c1          	movdqa %xmm1,%xmm0
 534:	f3 0f 5b e2          	cvttps2dq %xmm2,%xmm4
 538:	0f 5b e4             	cvtdq2ps %xmm4,%xmm4
 53b:	66 0f db c2          	pand   %xmm2,%xmm0
 53f:	66 0f db cb          	pand   %xmm3,%xmm1
 543:	0f c2 c5 06          	cmpnleps %xmm5,%xmm0
 547:	0f c2 cd 06          	cmpnleps %xmm5,%xmm1
 54b:	0f 28 f0             	movaps %xmm0,%xmm6
 54e:	66 0f db c2          	pand   %xmm2,%xmm0
 552:	0f 28 e9             	movaps %xmm1,%xmm5
 555:	0f 55 f4             	andnps %xmm4,%xmm6
 558:	0f 28 e2             	movaps %xmm2,%xmm4
 55b:	66 0f db cb          	pand   %xmm3,%xmm1
 55f:	f3 0f 5b d3          	cvttps2dq %xmm3,%xmm2
 563:	66 0f eb c6          	por    %xmm6,%xmm0
 567:	0f 5b d2             	cvtdq2ps %xmm2,%xmm2
 56a:	0f 55 ea             	andnps %xmm2,%xmm5
 56d:	0f 28 15 00 00 00 00 	movaps 0x0(%rip),%xmm2        # 574 <func_floor(eve::sse_abi_v0::wide<float, eve::fixed<8l> >)+0x64>
 574:	0f c2 e0 01          	cmpltps %xmm0,%xmm4
 578:	66 0f eb cd          	por    %xmm5,%xmm1
 57c:	0f c2 d9 01          	cmpltps %xmm1,%xmm3
 580:	0f 28 f4             	movaps %xmm4,%xmm6
 583:	0f 55 f0             	andnps %xmm0,%xmm6
 586:	0f 58 c2             	addps  %xmm2,%xmm0
 589:	0f 58 d1             	addps  %xmm1,%xmm2
 58c:	0f 28 eb             	movaps %xmm3,%xmm5
 58f:	0f 55 e9             	andnps %xmm1,%xmm5
 592:	0f 54 c4             	andps  %xmm4,%xmm0
 595:	0f 54 d3             	andps  %xmm3,%xmm2
 598:	66 0f eb c6          	por    %xmm6,%xmm0
 59c:	66 0f eb d5          	por    %xmm5,%xmm2
 5a0:	0f 29 07             	movaps %xmm0,(%rdi)
 5a3:	0f 29 57 10          	movaps %xmm2,0x10(%rdi)
 5a7:	c3                   	ret    
 5a8:	0f 1f 84 00 00 00 00 	nopl   0x0(%rax,%rax,1)
 5af:	00 

00000000000005b0 <func_frac(eve::sse_abi_v0::wide<float, eve::fixed<8l> >)>:
 5b0:	f3 0f 1e fa          	endbr64 
 5b4:	66 0f 6f 05 00 00 00 	movdqa 0x0(%rip),%xmm0        # 5bc <func_frac(eve::sse_abi_v0::wide<float, eve::fixed<8l> >)+0xc>
 5bb:	00 
 5bc:	0f 28 54 24 08       	movaps 0x8(%rsp),%xmm2
 5c1:	48 89 f8             	mov    %rdi,%rax
 5c4:	0f 28 35 00 00 00 00 	movaps 0x0(%rip),%xmm6        # 5cb <func_frac(eve::sse_abi_v0::wide<float, eve::fixed<8l> >)+0x1b>
 5cb:	0f 28 4c 24 18       	movaps 0x18(%rsp),%xmm1
 5d0:	66 0f 6f d8          	movdqa %xmm0,%xmm3
 5d4:	0f 28 ea             	movaps %xmm2,%xmm5
 5d7:	f3 0f 5b e2          	cvttps2dq %xmm2,%xmm4
 5db:	0f 5b e4             	cvtdq2ps %xmm4,%xmm4
 5de:	66 0f db da          	pand   %xmm2,%xmm3
 5e2:	66 0f db c1          	pand   %xmm1,%xmm0
 5e6:	44 0f 28 c2          	movaps %xmm2,%xmm8
 5ea:	0f c2 de 06          	cmpnleps %xmm6,%xmm3
 5ee:	0f c2 c6 06          	cmpnleps %xmm6,%xmm0
 5f2:	0f 28 fb             	movaps %xmm3,%xmm7
 5f5:	66 0f db da          	pand   %xmm2,%xmm3
 5f9:	0f 28 f0             	movaps %xmm0,%xmm6
 5fc:	0f 55 fc             	andnps %xmm4,%xmm7
 5ff:	66 0f ef e4          	pxor   %xmm4,%xmm4
 603:	66 0f db c1          	pand   %xmm1,%xmm0
 607:	0f c2 ec 00          	cmpeqps %xmm4,%xmm5
 60b:	0f c2 e1 00          	cmpeqps %xmm1,%xmm4
 60f:	66 0f eb df          	por    %xmm7,%xmm3
 613:	44 0f 5c c3          	subps  %xmm3,%xmm8
 617:	f3 0f 5b d9          	cvttps2dq %xmm1,%xmm3
 61b:	0f 5b db             	cvtdq2ps %xmm3,%xmm3
 61e:	0f 55 f3             	andnps %xmm3,%xmm6
 621:	66 0f eb c6          	por    %xmm6,%xmm0
 625:	0f 28 dc             	movaps %xmm4,%xmm3
 628:	0f 28 e1             	movaps %xmm1,%xmm4
 62b:	0f 28 fd             	movaps %xmm5,%xmm7
 62e:	0f 5c e0             	subps  %xmm0,%xmm4
 631:	0f 28 c3             	movaps %xmm3,%xmm0
 634:	41 0f 55 f8          	andnps %xmm8,%xmm7
 638:	66 0f db d5          	pand   %xmm5,%xmm2
 63c:	66 0f db cb          	pand   %xmm3,%xmm1
 640:	66 0f eb d7          	por    %xmm7,%xmm2
 644:	0f 55 c4             	andnps %xmm4,%xmm0
 647:	0f 29 17             	movaps %xmm2,(%rdi)
 64a:	66 0f eb c8          	por    %xmm0,%xmm1
 64e:	0f 29 4f 10          	movaps %xmm1,0x10(%rdi)
 652:	c3                   	ret    
 653:	66 66 2e 0f 1f 84 00 	data16 cs nopw 0x0(%rax,%rax,1)
 65a:	00 00 00 00 
 65e:	66 90                	xchg   %ax,%ax

0000000000000660 <func_max(eve::sse_abi_v0::wide<signed char, eve::fixed<16l> >, eve::sse_abi_v0::wide<signed char, eve::fixed<16l> >)>:
 660:	f3 0f 1e fa          	endbr64 
 664:	66 0f 6f d1          	movdqa %xmm1,%xmm2
 668:	66 0f 64 d0          	pcmpgtb %xmm0,%xmm2
 66c:	66 0f 6f da          	movdqa %xmm2,%xmm3
 670:	66 0f db ca          	pand   %xmm2,%xmm1
 674:	66 0f df d8          	pandn  %xmm0,%xmm3
 678:	66 0f eb cb          	por    %xmm3,%xmm1
 67c:	66 0f 6f c1          	movdqa %xmm1,%xmm0
 680:	c3                   	ret    
 681:	66 66 2e 0f 1f 84 00 	data16 cs nopw 0x0(%rax,%rax,1)
 688:	00 00 00 00 
 68c:	0f 1f 40 00          	nopl   0x0(%rax)

0000000000000690 <func_div(eve::sse_abi_v0::wide<signed char, eve::fixed<16l> >, eve::sse_abi_v0::wide<signed char, eve::fixed<16l> >)>:
 690:	f3 0f 1e fa          	endbr64 
 694:	48 81 ec 88 00 00 00 	sub    $0x88,%rsp
 69b:	66 0f 70 e1 ee       	pshufd $0xee,%xmm1,%xmm4
 6a0:	66 0f 70 d8 ee       	pshufd $0xee,%xmm0,%xmm3
 6a5:	64 48 8b 04 25 28 00 	mov    %fs:0x28,%rax
 6ac:	00 00 
 6ae:	48 89 44 24 78       	mov    %rax,0x78(%rsp)
 6b3:	31 c0                	xor    %eax,%eax
 6b5:	0f 29 5c 24 20       	movaps %xmm3,0x20(%rsp)
 6ba:	0f 29 64 24 10       	movaps %xmm4,0x10(%rsp)
 6bf:	e8 8c f9 ff ff       	call   50 <auto eve::detail::self_div<signed char, eve::sse_abi_v0::wide<signed char, eve::fixed<16l> >, eve::fixed<16l> >(eve::sse_abi_v0::wide<signed char, eve::fixed<16l> >&, eve::sse_abi_v0::wide<signed char, eve::fixed<16l> > const&)::{lambda(auto:1, auto:2)#1}::operator()<eve::sse_abi_v0::wide<signed char, eve::fixed<8l> >, eve::sse_abi_v0::wide<signed char, eve::fixed<8l> > >(eve::sse_abi_v0::wide<signed char, eve::fixed<8l> >, eve::sse_abi_v0::wide<signed char, eve::fixed<8l> >) const [clone .isra.0]>
 6c4:	66 0f 6f 64 24 10    	movdqa 0x10(%rsp),%xmm4
 6ca:	66 0f 6f 5c 24 20    	movdqa 0x20(%rsp),%xmm3
 6d0:	0f 29 04 24          	movaps %xmm0,(%rsp)
 6d4:	66 0f 6f cc          	movdqa %xmm4,%xmm1
 6d8:	66 0f 6f c3          	movdqa %xmm3,%xmm0
 6dc:	e8 6f f9 ff ff       	call   50 <auto eve::detail::self_div<signed char, eve::sse_abi_v0::wide<signed char, eve::fixed<16l> >, eve::fixed<16l> >(eve::sse_abi_v0::wide<signed char, eve::fixed<16l> >&, eve::sse_abi_v0::wide<signed char, eve::fixed<16l> > const&)::{lambda(auto:1, auto:2)#1}::operator()<eve::sse_abi_v0::wide<signed char, eve::fixed<8l> >, eve::sse_abi_v0::wide<signed char, eve::fixed<8l> > >(eve::sse_abi_v0::wide<signed char, eve::fixed<8l> >, eve::sse_abi_v0::wide<signed char, eve::fixed<8l> >) const [clone .isra.0]>
 6e1:	66 0f 6f 14 24       	movdqa (%rsp),%xmm2
 6e6:	66 0f 6f c8          	movdqa %xmm0,%xmm1
 6ea:	0f 28 c2             	movaps %xmm2,%xmm0
 6ed:	0f 16 c1             	movlhps %xmm1,%xmm0
 6f0:	48 8b 44 24 78       	mov    0x78(%rsp),%rax
 6f5:	64 48 2b 04 25 28 00 	sub    %fs:0x28,%rax
 6fc:	00 00 
 6fe:	75 08                	jne    708 <func_div(eve::sse_abi_v0::wide<signed char, eve::fixed<16l> >, eve::sse_abi_v0::wide<signed char, eve::fixed<16l> >)+0x78>
 700:	48 81 c4 88 00 00 00 	add    $0x88,%rsp
 707:	c3                   	ret    
 708:	e8 00 00 00 00       	call   70d <func_div(eve::sse_abi_v0::wide<signed char, eve::fixed<16l> >, eve::sse_abi_v0::wide<signed char, eve::fixed<16l> >)+0x7d>
 70d:	0f 1f 00             	nopl   (%rax)

0000000000000710 <func_is_nan(eve::sse_abi_v0::wide<signed char, eve::fixed<16l> >)>:
 710:	f3 0f 1e fa          	endbr64 
 714:	66 0f ef c0          	pxor   %xmm0,%xmm0
 718:	c3                   	ret    
 719:	0f 1f 80 00 00 00 00 	nopl   0x0(%rax)

0000000000000720 <func_dist(eve::sse_abi_v0::wide<signed char, eve::fixed<16l> >, eve::sse_abi_v0::wide<signed char, eve::fixed<16l> >)>:
 720:	f3 0f 1e fa          	endbr64 
 724:	66 0f 6f d8          	movdqa %xmm0,%xmm3
 728:	66 0f 6f d1          	movdqa %xmm1,%xmm2
 72c:	66 0f 64 d9          	pcmpgtb %xmm1,%xmm3
 730:	66 0f 64 d0          	pcmpgtb %xmm0,%xmm2
 734:	66 0f 6f e3          	movdqa %xmm3,%xmm4
 738:	66 0f 6f ea          	movdqa %xmm2,%xmm5
 73c:	66 0f df e0          	pandn  %xmm0,%xmm4
 740:	66 0f df e8          	pandn  %xmm0,%xmm5
 744:	66 0f 6f c2          	movdqa %xmm2,%xmm0
 748:	66 0f db c1          	pand   %xmm1,%xmm0
 74c:	66 0f db cb          	pand   %xmm3,%xmm1
 750:	66 0f eb c5          	por    %xmm5,%xmm0
 754:	66 0f eb cc          	por    %xmm4,%xmm1
 758:	66 0f f8 c1          	psubb  %xmm1,%xmm0
 75c:	c3                   	ret    
 75d:	0f 1f 00             	nopl   (%rax)

0000000000000760 <func_bit_reverse(eve::sse_abi_v0::wide<signed char, eve::fixed<16l> >)>:
 760:	f3 0f 1e fa          	endbr64 
 764:	66 0f 6f 0d 00 00 00 	movdqa 0x0(%rip),%xmm1        # 76c <func_bit_reverse(eve::sse_abi_v0::wide<signed char, eve::fixed<16l> >)+0xc>
 76b:	00 
 76c:	66 0f 6f 15 00 00 00 	movdqa 0x0(%rip),%xmm2        # 774 <func_bit_reverse(eve::sse_abi_v0::wide<signed char, eve::fixed<16l> >)+0x14>
 773:	00 
 774:	66 0f 6f 25 00 00 00 	movdqa 0x0(%rip),%xmm4        # 77c <func_bit_reverse(eve::sse_abi_v0::wide<signed char, eve::fixed<16l> >)+0x1c>
 77b:	00 
 77c:	66 0f 6f 1d 00 00 00 	movdqa 0x0(%rip),%xmm3        # 784 <func_bit_reverse(eve::sse_abi_v0::wide<signed char, eve::fixed<16l> >)+0x24>
 783:	00 
 784:	66 0f db c8          	pand   %xmm0,%xmm1
 788:	66 0f db d0          	pand   %xmm0,%xmm2
 78c:	66 0f db 05 00 00 00 	pand   0x0(%rip),%xmm0        # 794 <func_bit_reverse(eve::sse_abi_v0::wide<signed char, eve::fixed<16l> >)+0x34>
 793:	00 
 794:	66 0f 71 f1 01       	psllw  $0x1,%xmm1
 799:	66 0f 71 f2 01       	psllw  $0x1,%xmm2
 79e:	66 0f db d4          	pand   %xmm4,%xmm2
 7a2:	66 0f 71 d0 01       	psrlw  $0x1,%xmm0
 7a7:	66 0f db cb          	pand   %xmm3,%xmm1
 7ab:	66 0f db 05 00 00 00 	pand   0x0(%rip),%xmm0        # 7b3 <func_bit_reverse(eve::sse_abi_v0::wide<signed char, eve::fixed<16l> >)+0x53>
 7b2:	00 
 7b3:	66 0f fd ca          	paddw  %xmm2,%xmm1
 7b7:	66 0f 6f 15 00 00 00 	movdqa 0x0(%rip),%xmm2        # 7bf <func_bit_reverse(eve::sse_abi_v0::wide<signed char, eve::fixed<16l> >)+0x5f>
 7be:	00 
 7bf:	66 0f eb c8          	por    %xmm0,%xmm1
 7c3:	66 0f 6f 05 00 00 00 	movdqa 0x0(%rip),%xmm0        # 7cb <func_bit_reverse(eve::sse_abi_v0::wide<signed char, eve::fixed<16l> >)+0x6b>
 7ca:	00 
 7cb:	66 0f db d1          	pand   %xmm1,%xmm2
 7cf:	66 0f db c1          	pand   %xmm1,%xmm0
 7d3:	66 0f db 0d 00 00 00 	pand   0x0(%rip),%xmm1        # 7db <func_bit_reverse(eve::sse_abi_v0::wide<signed char, eve::fixed<16l> >)+0x7b>
 7da:	00 
 7db:	66 0f 71 f2 02       	psllw  $0x2,%xmm2
 7e0:	66 0f 71 f0 02       	psllw  $0x2,%xmm0
 7e5:	66 0f db c4          	pand   %xmm4,%xmm0
 7e9:	66 0f 71 d1 02       	psrlw  $0x2,%xmm1
 7ee:	66 0f db d3          	pand   %xmm3,%xmm2
 7f2:	66 0f db 0d 00 00 00 	pand   0x0(%rip),%xmm1        # 7fa <func_bit_reverse(eve::sse_abi_v0::wide<signed char, eve::fixed<16l> >)+0x9a>
 7f9:	00 
 7fa:	66 0f fd d0          	paddw  %xmm0,%xmm2
 7fe:	66 0f eb ca          	por    %xmm2,%xmm1
 802:	66 0f 6f d1          	movdqa %xmm1,%xmm2
 806:	66 0f 6f c1          	movdqa %xmm1,%xmm0
 80a:	66 0f 71 f0 04       	psllw  $0x4,%xmm0
 80f:	66 0f 71 d1 04       	psrlw  $0x4,%xmm1
 814:	66 0f db d4          	pand   %xmm4,%xmm2
 818:	66 0f 71 f2 04       	psllw  $0x4,%xmm2
 81d:	66 0f db 0d 00 00 00 	pand   0x0(%rip),%xmm1        # 825 <func_bit_reverse(eve::sse_abi_v0::wide<signed char, eve::fixed<16l> >)+0xc5>
 824:	00 
 825:	66 0f db c3          	pand   %xmm3,%xmm0
 829:	66 0f db d4          	pand   %xmm4,%xmm2
 82d:	66 0f fd c2          	paddw  %xmm2,%xmm0
 831:	66 0f eb c1          	por    %xmm1,%xmm0
 835:	c3                   	ret    
 836:	66 2e 0f 1f 84 00 00 	cs nopw 0x0(%rax,%rax,1)
 83d:	00 00 00 

0000000000000840 <func_bit_xor(eve::sse_abi_v0::wide<signed char, eve::fixed<16l> >, eve::sse_abi_v0::wide<signed char, eve::fixed<16l> >, eve::sse_abi_v0::wide<signed char, eve::fixed<16l> >)>:
 840:	f3 0f 1e fa          	endbr64 
 844:	66 0f ef c1          	pxor   %xmm1,%xmm0
 848:	66 0f ef c2          	pxor   %xmm2,%xmm0
 84c:	c3                   	ret    
 84d:	0f 1f 00             	nopl   (%rax)

0000000000000850 <func_bit_and(eve::sse_abi_v0::wide<signed char, eve::fixed<16l> >, eve::sse_abi_v0::wide<signed char, eve::fixed<16l> >, eve::sse_abi_v0::wide<signed char, eve::fixed<16l> >)>:
 850:	f3 0f 1e fa          	endbr64 
 854:	66 0f db c1          	pand   %xmm1,%xmm0
 858:	66 0f db c2          	pand   %xmm2,%xmm0
 85c:	c3                   	ret    
 85d:	0f 1f 00             	nopl   (%rax)

0000000000000860 <func_bit_ornot(eve::sse_abi_v0::wide<signed char, eve::fixed<16l> >, eve::sse_abi_v0::wide<signed char, eve::fixed<16l> >, eve::sse_abi_v0::wide<signed char, eve::fixed<16l> >)>:
 860:	f3 0f 1e fa          	endbr64 
 864:	66 0f db ca          	pand   %xmm2,%xmm1
 868:	66 0f 76 d2          	pcmpeqd %xmm2,%xmm2
 86c:	66 0f ef ca          	pxor   %xmm2,%xmm1
 870:	66 0f eb c1          	por    %xmm1,%xmm0
 874:	c3                   	ret    
 875:	66 66 2e 0f 1f 84 00 	data16 cs nopw 0x0(%rax,%rax,1)
 87c:	00 00 00 00 

0000000000000880 <func_is_real(eve::sse_abi_v0::wide<signed char, eve::fixed<16l> >)>:
 880:	f3 0f 1e fa          	endbr64 
 884:	66 0f 76 c0          	pcmpeqd %xmm0,%xmm0
 888:	c3                   	ret    
 889:	0f 1f 80 00 00 00 00 	nopl   0x0(%rax)

0000000000000890 <func_is_positive(eve::sse_abi_v0::wide<signed char, eve::fixed<16l> >)>:
 890:	f3 0f 1e fa          	endbr64 
 894:	66 0f 6f c8          	movdqa %xmm0,%xmm1
 898:	66 0f ef c0          	pxor   %xmm0,%xmm0
 89c:	66 0f 64 c1          	pcmpgtb %xmm1,%xmm0
 8a0:	66 0f 76 c9          	pcmpeqd %xmm1,%xmm1
 8a4:	66 0f ef c1          	pxor   %xmm1,%xmm0
 8a8:	c3                   	ret    
 8a9:	0f 1f 80 00 00 00 00 	nopl   0x0(%rax)

00000000000008b0 <func_min(eve::sse_abi_v0::wide<signed char, eve::fixed<16l> >, eve::sse_abi_v0::wide<signed char, eve::fixed<16l> >)>:
 8b0:	f3 0f 1e fa          	endbr64 
 8b4:	66 0f 6f d0          	movdqa %xmm0,%xmm2
 8b8:	66 0f 64 d1          	pcmpgtb %xmm1,%xmm2
 8bc:	66 0f 6f da          	movdqa %xmm2,%xmm3
 8c0:	66 0f db ca          	pand   %xmm2,%xmm1
 8c4:	66 0f df d8          	pandn  %xmm0,%xmm3
 8c8:	66 0f eb cb          	por    %xmm3,%xmm1
 8cc:	66 0f 6f c1          	movdqa %xmm1,%xmm0
 8d0:	c3                   	ret    
 8d1:	66 66 2e 0f 1f 84 00 	data16 cs nopw 0x0(%rax,%rax,1)
 8d8:	00 00 00 00 
 8dc:	0f 1f 40 00          	nopl   0x0(%rax)

00000000000008e0 <func_mul(eve::sse_abi_v0::wide<signed char, eve::fixed<16l> >, eve::sse_abi_v0::wide<signed char, eve::fixed<16l> >)>:
 8e0:	f3 0f 1e fa          	endbr64 
 8e4:	66 0f 6f d0          	movdqa %xmm0,%xmm2
 8e8:	66 0f d5 c1          	pmullw %xmm1,%xmm0
 8ec:	66 0f 6f d9          	movdqa %xmm1,%xmm3
 8f0:	66 0f 71 d3 08       	psrlw  $0x8,%xmm3
 8f5:	66 0f 71 d2 08       	psrlw  $0x8,%xmm2
 8fa:	66 0f d5 d3          	pmullw %xmm3,%xmm2
 8fe:	66 0f 6f 1d 00 00 00 	movdqa 0x0(%rip),%xmm3        # 906 <func_mul(eve::sse_abi_v0::wide<signed char, eve::fixed<16l> >, eve::sse_abi_v0::wide<signed char, eve::fixed<16l> >)+0x26>
 905:	00 
 906:	66 0f db c3          	pand   %xmm3,%xmm0
 90a:	66 0f db d3          	pand   %xmm3,%xmm2
 90e:	66 0f 71 f2 08       	psllw  $0x8,%xmm2
 913:	66 0f eb c2          	por    %xmm2,%xmm0
 917:	c3                   	ret    
 918:	0f 1f 84 00 00 00 00 	nopl   0x0(%rax,%rax,1)
 91f:	00 

0000000000000920 <func_rem(eve::sse_abi_v0::wide<signed char, eve::fixed<16l> >, eve::sse_abi_v0::wide<signed char, eve::fixed<16l> >)>:
 920:	f3 0f 1e fa          	endbr64 
 924:	49 ba ff ff ff 00 ff 	movabs $0xffffffff00ffffff,%r10
 92b:	ff ff ff 
 92e:	41 54                	push   %r12
 930:	66 0f 7e c9          	movd   %xmm1,%ecx
 934:	49 bb ff ff ff ff 00 	movabs $0xffffff00ffffffff,%r11
 93b:	ff ff ff 
 93e:	49 bc ff ff ff ff ff 	movabs $0xffffffffffffff,%r12
 945:	ff ff 00 
 948:	55                   	push   %rbp
 949:	0f be c9             	movsbl %cl,%ecx
 94c:	48 bd ff ff ff ff ff 	movabs $0xff00ffffffffffff,%rbp
 953:	ff 00 ff 
 956:	53                   	push   %rbx
 957:	66 48 0f 7e c3       	movq   %xmm0,%rbx
 95c:	48 81 ec 88 00 00 00 	sub    $0x88,%rsp
 963:	0f 29 44 24 88       	movaps %xmm0,-0x78(%rsp)
 968:	8b 44 24 88          	mov    -0x78(%rsp),%eax
 96c:	4c 8b 44 24 90       	mov    -0x70(%rsp),%r8
 971:	0f 29 4c 24 78       	movaps %xmm1,0x78(%rsp)
 976:	0f be c0             	movsbl %al,%eax
 979:	0f 29 4c 24 68       	movaps %xmm1,0x68(%rsp)
 97e:	99                   	cltd   
 97f:	0f 29 4c 24 58       	movaps %xmm1,0x58(%rsp)
 984:	f7 f9                	idiv   %ecx
 986:	0f be 4c 24 79       	movsbl 0x79(%rsp),%ecx
 98b:	0f 29 4c 24 48       	movaps %xmm1,0x48(%rsp)
 990:	0f 29 4c 24 38       	movaps %xmm1,0x38(%rsp)
 995:	0f 29 4c 24 28       	movaps %xmm1,0x28(%rsp)
 99a:	0f 29 4c 24 18       	movaps %xmm1,0x18(%rsp)
 99f:	0f 29 4c 24 08       	movaps %xmm1,0x8(%rsp)
 9a4:	0f be 7c 24 10       	movsbl 0x10(%rsp),%edi
 9a9:	0f 29 4c 24 f8       	movaps %xmm1,-0x8(%rsp)
 9ae:	0f 29 4c 24 e8       	movaps %xmm1,-0x18(%rsp)
 9b3:	0f 29 4c 24 d8       	movaps %xmm1,-0x28(%rsp)
 9b8:	0f 29 4c 24 c8       	movaps %xmm1,-0x38(%rsp)
 9bd:	0f 29 4c 24 b8       	movaps %xmm1,-0x48(%rsp)
 9c2:	88 d3                	mov    %dl,%bl
 9c4:	89 d8                	mov    %ebx,%eax
 9c6:	66 c1 f8 08          	sar    $0x8,%ax
 9ca:	0f be c0             	movsbl %al,%eax
 9cd:	99                   	cltd   
 9ce:	f7 f9                	idiv   %ecx
 9d0:	0f be 4c 24 6a       	movsbl 0x6a(%rsp),%ecx
 9d5:	88 d7                	mov    %dl,%bh
 9d7:	89 d8                	mov    %ebx,%eax
 9d9:	48 81 e3 ff ff 00 ff 	and    $0xffffffffff00ffff,%rbx
 9e0:	c1 e0 08             	shl    $0x8,%eax
 9e3:	48 89 de             	mov    %rbx,%rsi
 9e6:	48 bb ff ff ff ff ff 	movabs $0xffff00ffffffffff,%rbx
 9ed:	00 ff ff 
 9f0:	c1 f8 18             	sar    $0x18,%eax
 9f3:	99                   	cltd   
 9f4:	f7 f9                	idiv   %ecx
 9f6:	0f be 4c 24 5b       	movsbl 0x5b(%rsp),%ecx
 9fb:	0f b6 d2             	movzbl %dl,%edx
 9fe:	48 c1 e2 10          	shl    $0x10,%rdx
 a02:	48 09 d6             	or     %rdx,%rsi
 a05:	89 f0                	mov    %esi,%eax
 a07:	4c 21 d6             	and    %r10,%rsi
 a0a:	c1 f8 18             	sar    $0x18,%eax
 a0d:	99                   	cltd   
 a0e:	f7 f9                	idiv   %ecx
 a10:	0f be 4c 24 4c       	movsbl 0x4c(%rsp),%ecx
 a15:	0f b6 d2             	movzbl %dl,%edx
 a18:	48 c1 e2 18          	shl    $0x18,%rdx
 a1c:	48 09 d6             	or     %rdx,%rsi
 a1f:	48 89 f0             	mov    %rsi,%rax
 a22:	4c 21 de             	and    %r11,%rsi
 a25:	48 c1 e0 18          	shl    $0x18,%rax
 a29:	48 c1 f8 38          	sar    $0x38,%rax
 a2d:	99                   	cltd   
 a2e:	f7 f9                	idiv   %ecx
 a30:	0f be 4c 24 3d       	movsbl 0x3d(%rsp),%ecx
 a35:	0f b6 d2             	movzbl %dl,%edx
 a38:	48 c1 e2 20          	shl    $0x20,%rdx
 a3c:	48 09 d6             	or     %rdx,%rsi
 a3f:	48 89 f0             	mov    %rsi,%rax
 a42:	48 21 de             	and    %rbx,%rsi
 a45:	48 c1 e0 10          	shl    $0x10,%rax
 a49:	48 c1 f8 38          	sar    $0x38,%rax
 a4d:	99                   	cltd   
 a4e:	f7 f9                	idiv   %ecx
 a50:	0f be 4c 24 2e       	movsbl 0x2e(%rsp),%ecx
 a55:	0f b6 d2             	movzbl %dl,%edx
 a58:	48 c1 e2 28          	shl    $0x28,%rdx
 a5c:	48 09 d6             	or     %rdx,%rsi
 a5f:	48 89 f0             	mov    %rsi,%rax
 a62:	48 21 ee             	and    %rbp,%rsi
 a65:	48 c1 e0 08          	shl    $0x8,%rax
 a69:	48 c1 f8 38          	sar    $0x38,%rax
 a6d:	99                   	cltd   
 a6e:	f7 f9                	idiv   %ecx
 a70:	0f be 4c 24 1f       	movsbl 0x1f(%rsp),%ecx
 a75:	0f b6 d2             	movzbl %dl,%edx
 a78:	48 c1 e2 30          	shl    $0x30,%rdx
 a7c:	48 09 d6             	or     %rdx,%rsi
 a7f:	48 89 f0             	mov    %rsi,%rax
 a82:	4c 21 e6             	and    %r12,%rsi
 a85:	48 c1 f8 38          	sar    $0x38,%rax
 a89:	99                   	cltd   
 a8a:	f7 f9                	idiv   %ecx
 a8c:	41 0f be c0          	movsbl %r8b,%eax
 a90:	4c 89 c1             	mov    %r8,%rcx
 a93:	49 89 d1             	mov    %rdx,%r9
 a96:	99                   	cltd   
 a97:	f7 ff                	idiv   %edi
 a99:	0f be 7c 24 01       	movsbl 0x1(%rsp),%edi
 a9e:	49 c1 e1 38          	shl    $0x38,%r9
 aa2:	88 d1                	mov    %dl,%cl
 aa4:	89 c8                	mov    %ecx,%eax
 aa6:	66 c1 f8 08          	sar    $0x8,%ax
 aaa:	0f be c0             	movsbl %al,%eax
 aad:	99                   	cltd   
 aae:	f7 ff                	idiv   %edi
 ab0:	0f be 7c 24 f2       	movsbl -0xe(%rsp),%edi
 ab5:	88 d5                	mov    %dl,%ch
 ab7:	89 c8                	mov    %ecx,%eax
 ab9:	c1 e0 08             	shl    $0x8,%eax
 abc:	c1 f8 18             	sar    $0x18,%eax
 abf:	99                   	cltd   
 ac0:	f7 ff                	idiv   %edi
 ac2:	48 89 cf             	mov    %rcx,%rdi
 ac5:	0f be 4c 24 e3       	movsbl -0x1d(%rsp),%ecx
 aca:	48 81 e7 ff ff 00 ff 	and    $0xffffffffff00ffff,%rdi
 ad1:	0f b6 d2             	movzbl %dl,%edx
 ad4:	48 c1 e2 10          	shl    $0x10,%rdx
 ad8:	48 09 d7             	or     %rdx,%rdi
 adb:	89 f8                	mov    %edi,%eax
 add:	4c 21 d7             	and    %r10,%rdi
 ae0:	c1 f8 18             	sar    $0x18,%eax
 ae3:	99                   	cltd   
 ae4:	f7 f9                	idiv   %ecx
 ae6:	0f be 4c 24 d4       	movsbl -0x2c(%rsp),%ecx
 aeb:	0f b6 d2             	movzbl %dl,%edx
 aee:	48 c1 e2 18          	shl    $0x18,%rdx
 af2:	48 09 d7             	or     %rdx,%rdi
 af5:	48 89 f8             	mov    %rdi,%rax
 af8:	48 c1 e0 18          	shl    $0x18,%rax
 afc:	48 c1 f8 38          	sar    $0x38,%rax
 b00:	4c 21 df             	and    %r11,%rdi
 b03:	4c 09 ce             	or     %r9,%rsi
 b06:	99                   	cltd   
 b07:	f7 f9                	idiv   %ecx
 b09:	0f be 4c 24 c5       	movsbl -0x3b(%rsp),%ecx
 b0e:	0f 29 4c 24 a8       	movaps %xmm1,-0x58(%rsp)
 b13:	0f 29 4c 24 98       	movaps %xmm1,-0x68(%rsp)
 b18:	48 89 74 24 88       	mov    %rsi,-0x78(%rsp)
 b1d:	0f b6 d2             	movzbl %dl,%edx
 b20:	48 c1 e2 20          	shl    $0x20,%rdx
 b24:	48 09 d7             	or     %rdx,%rdi
 b27:	48 89 f8             	mov    %rdi,%rax
 b2a:	48 21 df             	and    %rbx,%rdi
 b2d:	48 c1 e0 10          	shl    $0x10,%rax
 b31:	48 c1 f8 38          	sar    $0x38,%rax
 b35:	99                   	cltd   
 b36:	f7 f9                	idiv   %ecx
 b38:	48 89 f9             	mov    %rdi,%rcx
 b3b:	0f be 7c 24 b6       	movsbl -0x4a(%rsp),%edi
 b40:	0f b6 d2             	movzbl %dl,%edx
 b43:	48 c1 e2 28          	shl    $0x28,%rdx
 b47:	48 09 d1             	or     %rdx,%rcx
 b4a:	48 89 c8             	mov    %rcx,%rax
 b4d:	48 21 e9             	and    %rbp,%rcx
 b50:	48 c1 e0 08          	shl    $0x8,%rax
 b54:	48 c1 f8 38          	sar    $0x38,%rax
 b58:	99                   	cltd   
 b59:	f7 ff                	idiv   %edi
 b5b:	0f be 7c 24 a7       	movsbl -0x59(%rsp),%edi
 b60:	0f b6 d2             	movzbl %dl,%edx
 b63:	48 c1 e2 30          	shl    $0x30,%rdx
 b67:	48 09 d1             	or     %rdx,%rcx
 b6a:	48 89 c8             	mov    %rcx,%rax
 b6d:	4c 21 e1             	and    %r12,%rcx
 b70:	48 c1 f8 38          	sar    $0x38,%rax
 b74:	99                   	cltd   
 b75:	f7 ff                	idiv   %edi
 b77:	48 c1 e2 38          	shl    $0x38,%rdx
 b7b:	48 09 d1             	or     %rdx,%rcx
 b7e:	48 89 4c 24 90       	mov    %rcx,-0x70(%rsp)
 b83:	66 0f 6f 44 24 88    	movdqa -0x78(%rsp),%xmm0
 b89:	48 81 c4 88 00 00 00 	add    $0x88,%rsp
 b90:	5b                   	pop    %rbx
 b91:	5d                   	pop    %rbp
 b92:	41 5c                	pop    %r12
 b94:	c3                   	ret    
